; Function Attrs: mustprogress uwtable
define noundef ptr @udat_getNumberFormatForField_75(ptr noundef %fmt, i16 noundef zeroext %field) local_unnamed_addr #1 {
land.lhs.true.i:
  %0 = icmp eq ptr %fmt, null
  br i1 %0, label %if.then, label %dynamic_cast.notnull.i

dynamic_cast.notnull.i:                           ; preds = %land.lhs.true.i
  %1 = tail call ptr @__dynamic_cast(ptr nonnull %fmt, ptr nonnull @_ZTIN6icu_7510DateFormatE, ptr nonnull @_ZTIN6icu_7516SimpleDateFormatE, i64 0) #7
  %2 = icmp eq ptr %1, null
  br i1 %2, label %if.then, label %if.end

if.then:                                          ; preds = %dynamic_cast.notnull.i, %land.lhs.true.i
  %vtable = load ptr, ptr %fmt, align 8
  %vfn = getelementptr inbounds i8, ptr %vtable, i64 152
  %3 = load ptr, ptr %vfn, align 8
  %call1 = tail call noundef ptr %3(ptr noundef nonnull align 8 dereferenceable(352) %fmt)
  br label %return

if.end:                                           ; preds = %dynamic_cast.notnull.i
  %call2 = tail call noundef ptr @_ZNK6icu_7516SimpleDateFormat23getNumberFormatForFieldEDs(ptr noundef nonnull align 8 dereferenceable(832) %fmt, i16 noundef zeroext %field)
  br label %return

return:                                           ; preds = %if.end, %if.then
  %retval.0 = phi ptr [ %call1, %if.then ], [ %call2, %if.end ]
  ret ptr %retval.0
}